target datalayout = "e-m:e-p270:32:32-p271:32:32-p272:64:64-i64:64-i128:128-f80:128-n8:16:32:64-S128"
target triple = "x86_64-pc-linux-gnu"

; Function Attrs: nounwind uwtable
define dso_local double @ArHosekSkyModel_GetRadianceInternal(ptr noundef %0, double noundef %1, double noundef %2) #0 {
  %4 = alloca ptr, align 8
  %5 = alloca double, align 8
  %6 = alloca double, align 8
  %7 = alloca double, align 8
  %8 = alloca double, align 8
  %9 = alloca double, align 8
  %10 = alloca double, align 8
  store ptr %0, ptr %4, align 8, !tbaa !4
  store double %1, ptr %5, align 8, !tbaa !9
  store double %2, ptr %6, align 8, !tbaa !9
  call void @llvm.lifetime.start.p0(i64 8, ptr %7) #5
  %11 = load ptr, ptr %4, align 8, !tbaa !4
  %12 = getelementptr inbounds double, ptr %11, i64 4
  %13 = load double, ptr %12, align 8, !tbaa !9
  %14 = load double, ptr %6, align 8, !tbaa !9
  %15 = fmul double %13, %14
  %16 = call double @exp(double noundef %15) #5, !tbaa !11
  store double %16, ptr %7, align 8, !tbaa !9
  call void @llvm.lifetime.start.p0(i64 8, ptr %8) #5
  %17 = load double, ptr %6, align 8, !tbaa !9
  %18 = call double @cos(double noundef %17) #5, !tbaa !11
  %19 = load double, ptr %6, align 8, !tbaa !9
  %20 = call double @cos(double noundef %19) #5, !tbaa !11
  %21 = fmul double %18, %20
  store double %21, ptr %8, align 8, !tbaa !9
  call void @llvm.lifetime.start.p0(i64 8, ptr %9) #5
  %22 = load double, ptr %6, align 8, !tbaa !9
  %23 = call double @cos(double noundef %22) #5, !tbaa !11
  %24 = load double, ptr %6, align 8, !tbaa !9
  %25 = call double @cos(double noundef %24) #5, !tbaa !11
  %26 = call double @llvm.fmuladd.f64(double %23, double %25, double 1.000000e+00)
  %27 = load ptr, ptr %4, align 8, !tbaa !4
  %28 = getelementptr inbounds double, ptr %27, i64 8
  %29 = load double, ptr %28, align 8, !tbaa !9
  %30 = load ptr, ptr %4, align 8, !tbaa !4
  %31 = getelementptr inbounds double, ptr %30, i64 8
  %32 = load double, ptr %31, align 8, !tbaa !9
  %33 = call double @llvm.fmuladd.f64(double %29, double %32, double 1.000000e+00)
  %34 = load ptr, ptr %4, align 8, !tbaa !4
  %35 = getelementptr inbounds double, ptr %34, i64 8
  %36 = load double, ptr %35, align 8, !tbaa !9
  %37 = fmul double 2.000000e+00, %36
  %38 = load double, ptr %6, align 8, !tbaa !9
  %39 = call double @cos(double noundef %38) #5, !tbaa !11
  %40 = fneg double %37
  %41 = call double @llvm.fmuladd.f64(double %40, double %39, double %33)
  %42 = call double @pow(double noundef %41, double noundef 1.500000e+00) #5, !tbaa !11
  %43 = fdiv double %26, %42
  store double %43, ptr %9, align 8, !tbaa !9
  call void @llvm.lifetime.start.p0(i64 8, ptr %10) #5
  %44 = load double, ptr %5, align 8, !tbaa !9
  %45 = call double @cos(double noundef %44) #5, !tbaa !11
  %46 = call double @sqrt(double noundef %45) #5, !tbaa !11
  store double %46, ptr %10, align 8, !tbaa !9
  %47 = load ptr, ptr %4, align 8, !tbaa !4
  %48 = getelementptr inbounds double, ptr %47, i64 0
  %49 = load double, ptr %48, align 8, !tbaa !9
  %50 = load ptr, ptr %4, align 8, !tbaa !4
  %51 = getelementptr inbounds double, ptr %50, i64 1
  %52 = load double, ptr %51, align 8, !tbaa !9
  %53 = load double, ptr %5, align 8, !tbaa !9
  %54 = call double @cos(double noundef %53) #5, !tbaa !11
  %55 = fadd double %54, 1.000000e-02
  %56 = fdiv double %52, %55
  %57 = call double @exp(double noundef %56) #5, !tbaa !11
  %58 = call double @llvm.fmuladd.f64(double %49, double %57, double 1.000000e+00)
  %59 = load ptr, ptr %4, align 8, !tbaa !4
  %60 = getelementptr inbounds double, ptr %59, i64 2
  %61 = load double, ptr %60, align 8, !tbaa !9
  %62 = load ptr, ptr %4, align 8, !tbaa !4
  %63 = getelementptr inbounds double, ptr %62, i64 3
  %64 = load double, ptr %63, align 8, !tbaa !9
  %65 = load double, ptr %7, align 8, !tbaa !9
  %66 = call double @llvm.fmuladd.f64(double %64, double %65, double %61)
  %67 = load ptr, ptr %4, align 8, !tbaa !4
  %68 = getelementptr inbounds double, ptr %67, i64 5
  %69 = load double, ptr %68, align 8, !tbaa !9
  %70 = load double, ptr %8, align 8, !tbaa !9
  %71 = call double @llvm.fmuladd.f64(double %69, double %70, double %66)
  %72 = load ptr, ptr %4, align 8, !tbaa !4
  %73 = getelementptr inbounds double, ptr %72, i64 6
  %74 = load double, ptr %73, align 8, !tbaa !9
  %75 = load double, ptr %9, align 8, !tbaa !9
  %76 = call double @llvm.fmuladd.f64(double %74, double %75, double %71)
  %77 = load ptr, ptr %4, align 8, !tbaa !4
  %78 = getelementptr inbounds double, ptr %77, i64 7
  %79 = load double, ptr %78, align 8, !tbaa !9
  %80 = load double, ptr %10, align 8, !tbaa !9
  %81 = call double @llvm.fmuladd.f64(double %79, double %80, double %76)
  %82 = fmul double %58, %81
  call void @llvm.lifetime.end.p0(i64 8, ptr %10) #5
  call void @llvm.lifetime.end.p0(i64 8, ptr %9) #5
  call void @llvm.lifetime.end.p0(i64 8, ptr %8) #5
  call void @llvm.lifetime.end.p0(i64 8, ptr %7) #5
  ret double %82
}