; Function Attrs: mustprogress nofree nounwind willreturn memory(write, argmem: readwrite) uwtable
define dso_local double @ArHosekSkyModel_GetRadianceInternal(ptr noundef readonly captures(none) %0, double noundef %1, double noundef %2) local_unnamed_addr #4 {
  %4 = getelementptr inbounds nuw i8, ptr %0, i64 32
  %5 = load double, ptr %4, align 8, !tbaa !8
  %6 = fmul double %2, %5
  %7 = tail call double @exp(double noundef %6) #12, !tbaa !4
  %8 = tail call double @cos(double noundef %2) #12, !tbaa !4
  %9 = tail call double @cos(double noundef %2) #12, !tbaa !4
  %10 = fmul double %8, %9
  %11 = tail call double @cos(double noundef %2) #12, !tbaa !4
  %12 = tail call double @cos(double noundef %2) #12, !tbaa !4
  %13 = tail call double @llvm.fmuladd.f64(double %11, double %12, double 1.000000e+00)
  %14 = getelementptr inbounds nuw i8, ptr %0, i64 64
  %15 = load double, ptr %14, align 8, !tbaa !8
  %16 = tail call double @llvm.fmuladd.f64(double %15, double %15, double 1.000000e+00)
  %17 = tail call double @cos(double noundef %2) #12, !tbaa !4
  %18 = fmul double %15, -2.000000e+00
  %19 = tail call double @llvm.fmuladd.f64(double %18, double %17, double %16)
  %20 = tail call double @pow(double noundef %19, double noundef 1.500000e+00) #12, !tbaa !4
  %21 = fdiv double %13, %20
  %22 = tail call double @cos(double noundef %1) #12, !tbaa !4
  %23 = tail call double @sqrt(double noundef %22) #12, !tbaa !4
  %24 = load double, ptr %0, align 8, !tbaa !8
  %25 = getelementptr inbounds nuw i8, ptr %0, i64 8
  %26 = load double, ptr %25, align 8, !tbaa !8
  %27 = tail call double @cos(double noundef %1) #12, !tbaa !4
  %28 = fadd double %27, 1.000000e-02
  %29 = fdiv double %26, %28
  %30 = tail call double @exp(double noundef %29) #12, !tbaa !4
  %31 = tail call double @llvm.fmuladd.f64(double %24, double %30, double 1.000000e+00)
  %32 = getelementptr inbounds nuw i8, ptr %0, i64 16
  %33 = load double, ptr %32, align 8, !tbaa !8
  %34 = getelementptr inbounds nuw i8, ptr %0, i64 24
  %35 = load double, ptr %34, align 8, !tbaa !8
  %36 = tail call double @llvm.fmuladd.f64(double %35, double %7, double %33)
  %37 = getelementptr inbounds nuw i8, ptr %0, i64 40
  %38 = load double, ptr %37, align 8, !tbaa !8
  %39 = tail call double @llvm.fmuladd.f64(double %38, double %10, double %36)
  %40 = getelementptr inbounds nuw i8, ptr %0, i64 48
  %41 = load double, ptr %40, align 8, !tbaa !8
  %42 = tail call double @llvm.fmuladd.f64(double %41, double %21, double %39)
  %43 = getelementptr inbounds nuw i8, ptr %0, i64 56
  %44 = load double, ptr %43, align 8, !tbaa !8
  %45 = tail call double @llvm.fmuladd.f64(double %44, double %23, double %42)
  %46 = fmul double %31, %45
  ret double %46
}